; Function Attrs: nounwind uwtable
define ptr @l_Lean_FuzzyMatching_fuzzyMatchScore_x3f___lambda__3(ptr noundef %0, ptr noundef %1, ptr readnone captures(none) %2) local_unnamed_addr #0 {
  %4 = ptrtoint ptr %0 to i64
  %5 = and i64 %4, 1
  %.not = icmp eq i64 %5, 0
  br i1 %.not, label %6, label %lean_inc.exit.thread

6:                                                ; preds = %3
  %.val.i = load i32, ptr %0, align 4, !tbaa !5
  %7 = icmp sgt i32 %.val.i, 0
  br i1 %7, label %8, label %10, !prof !10

8:                                                ; preds = %6
  %9 = add nuw i32 %.val.i, 1
  store i32 %9, ptr %0, align 4, !tbaa !5
  br label %lean_inc.exit

10:                                               ; preds = %6
  %.not.i19 = icmp eq i32 %.val.i, 0
  br i1 %.not.i19, label %lean_inc.exit, label %11

11:                                               ; preds = %10
  tail call void @lean_inc_ref_cold(ptr noundef nonnull %0) #7
  br label %lean_inc.exit

lean_inc.exit:                                    ; preds = %11, %10, %8
  %12 = getelementptr i8, ptr %0, i64 8
  %.val.i20 = load i64, ptr %12, align 8, !tbaa !13
  %.mask.i = and i64 %.val.i20, 9223372036854775807
  %.not.i21 = icmp eq i64 %.mask.i, 1
  br i1 %.not.i21, label %16, label %14

lean_inc.exit.thread:                             ; preds = %3
  %13 = getelementptr i8, ptr %0, i64 8
  %.val.i2022 = load i64, ptr %13, align 8, !tbaa !13
  %.mask.i23 = and i64 %.val.i2022, 9223372036854775807
  %.not.i2124 = icmp eq i64 %.mask.i23, 1
  br i1 %.not.i2124, label %l___private_Lean_Data_FuzzyMatching_0__Lean_FuzzyMatching_containsInOrderLower.exit, label %14

14:                                               ; preds = %lean_inc.exit.thread, %lean_inc.exit
  %15 = tail call ptr @l___private_Lean_Data_FuzzyMatching_0__Lean_FuzzyMatching_containsInOrderLower___lambda__2(ptr noundef nonnull %0, ptr noundef %1, ptr nonnull poison)
  br label %l___private_Lean_Data_FuzzyMatching_0__Lean_FuzzyMatching_containsInOrderLower.exit

16:                                               ; preds = %lean_inc.exit
  %17 = load i32, ptr %0, align 4, !tbaa !5
  %18 = icmp sgt i32 %17, 1
  br i1 %18, label %19, label %21, !prof !10

19:                                               ; preds = %16
  %20 = add nsw i32 %17, -1
  store i32 %20, ptr %0, align 4, !tbaa !5
  br label %l___private_Lean_Data_FuzzyMatching_0__Lean_FuzzyMatching_containsInOrderLower.exit

21:                                               ; preds = %16
  %.not.i13.i = icmp eq i32 %17, 0
  br i1 %.not.i13.i, label %l___private_Lean_Data_FuzzyMatching_0__Lean_FuzzyMatching_containsInOrderLower.exit, label %22

22:                                               ; preds = %21
  tail call void @lean_dec_ref_cold(ptr noundef nonnull %0) #7
  br label %l___private_Lean_Data_FuzzyMatching_0__Lean_FuzzyMatching_containsInOrderLower.exit

l___private_Lean_Data_FuzzyMatching_0__Lean_FuzzyMatching_containsInOrderLower.exit: ; preds = %lean_inc.exit.thread, %14, %19, %21, %22
  %.0.i = phi ptr [ %15, %14 ], [ inttoptr (i64 3 to ptr), %22 ], [ inttoptr (i64 3 to ptr), %21 ], [ inttoptr (i64 3 to ptr), %19 ], [ inttoptr (i64 3 to ptr), %lean_inc.exit.thread ]
  %23 = ptrtoint ptr %.0.i to i64
  %24 = and i64 %23, 1
  %.not26 = icmp eq i64 %24, 0
  br i1 %.not26, label %25, label %lean_dec.exit14

25:                                               ; preds = %l___private_Lean_Data_FuzzyMatching_0__Lean_FuzzyMatching_containsInOrderLower.exit
  %26 = load i32, ptr %.0.i, align 4, !tbaa !5
  %27 = icmp sgt i32 %26, 1
  br i1 %27, label %28, label %30, !prof !10

28:                                               ; preds = %25
  %29 = add nsw i32 %26, -1
  store i32 %29, ptr %.0.i, align 4, !tbaa !5
  br label %lean_dec.exit14

30:                                               ; preds = %25
  %.not.i = icmp eq i32 %26, 0
  br i1 %.not.i, label %lean_dec.exit14, label %31

31:                                               ; preds = %30
  tail call void @lean_dec_ref_cold(ptr noundef nonnull %.0.i) #7
  br label %lean_dec.exit14

lean_dec.exit14:                                  ; preds = %31, %30, %28, %l___private_Lean_Data_FuzzyMatching_0__Lean_FuzzyMatching_containsInOrderLower.exit
  %32 = and i64 %23, 510
  %33 = icmp eq i64 %32, 0
  br i1 %33, label %34, label %42

34:                                               ; preds = %lean_dec.exit14
  br i1 %.not, label %35, label %lean_dec.exit13

35:                                               ; preds = %34
  %36 = load i32, ptr %0, align 4, !tbaa !5
  %37 = icmp sgt i32 %36, 1
  br i1 %37, label %38, label %40, !prof !10

38:                                               ; preds = %35
  %39 = add nsw i32 %36, -1
  store i32 %39, ptr %0, align 4, !tbaa !5
  br label %lean_dec.exit13

40:                                               ; preds = %35
  %.not.i15 = icmp eq i32 %36, 0
  br i1 %.not.i15, label %lean_dec.exit13, label %41

41:                                               ; preds = %40
  tail call void @lean_dec_ref_cold(ptr noundef nonnull %0) #7
  br label %lean_dec.exit13

42:                                               ; preds = %lean_dec.exit14
  %43 = tail call ptr @l_Lean_FuzzyMatching_fuzzyMatchScore_x3f___lambda__2(ptr noundef nonnull %0, ptr noundef %1, ptr nonnull poison)
  br i1 %.not, label %44, label %lean_dec.exit13

44:                                               ; preds = %42
  %45 = load i32, ptr %0, align 4, !tbaa !5
  %46 = icmp sgt i32 %45, 1
  br i1 %46, label %47, label %49, !prof !10

47:                                               ; preds = %44
  %48 = add nsw i32 %45, -1
  store i32 %48, ptr %0, align 4, !tbaa !5
  br label %lean_dec.exit13

49:                                               ; preds = %44
  %.not.i17 = icmp eq i32 %45, 0
  br i1 %.not.i17, label %lean_dec.exit13, label %50

50:                                               ; preds = %49
  tail call void @lean_dec_ref_cold(ptr noundef nonnull %0) #7
  br label %lean_dec.exit13

lean_dec.exit13:                                  ; preds = %42, %47, %49, %50, %34, %38, %40, %41
  %.0 = phi ptr [ inttoptr (i64 1 to ptr), %41 ], [ inttoptr (i64 1 to ptr), %40 ], [ inttoptr (i64 1 to ptr), %38 ], [ inttoptr (i64 1 to ptr), %34 ], [ %43, %50 ], [ %43, %49 ], [ %43, %47 ], [ %43, %42 ]
  ret ptr %.0
}